target datalayout = "e-m:e-p270:32:32-p271:32:32-p272:64:64-i64:64-i128:128-f80:128-n8:16:32:64-S128"
target triple = "x86_64-pc-linux-gnu"

%"class.pymeshlab::FunctionParameter" = type { ptr, ptr }

@_ZTVN9pymeshlab17FunctionParameterE = unnamed_addr constant { [4 x ptr] } { [4 x ptr] [ptr null, ptr @_ZTIN9pymeshlab17FunctionParameterE, ptr @_ZN9pymeshlab17FunctionParameterD1Ev, ptr @_ZN9pymeshlab17FunctionParameterD0Ev] }, align 8

; Function Attrs: mustprogress uwtable
define void @_ZN9pymeshlab17FunctionParameterC2ERK13RichParameter(ptr noundef nonnull align 8 dereferenceable(16) %0, ptr noundef nonnull align 8 dereferenceable(56) %1) unnamed_addr #2 align 2 {
  %3 = alloca ptr, align 8
  %4 = alloca ptr, align 8
  store ptr %0, ptr %3, align 8
  store ptr %1, ptr %4, align 8
  %5 = load ptr, ptr %3, align 8
  store ptr getelementptr inbounds ({ [4 x ptr] }, ptr @_ZTVN9pymeshlab17FunctionParameterE, i32 0, i32 0, i32 2), ptr %5, align 8
  %6 = getelementptr inbounds %"class.pymeshlab::FunctionParameter", ptr %5, i32 0, i32 1
  %7 = load ptr, ptr %4, align 8
  %8 = load ptr, ptr %7, align 8
  %9 = getelementptr inbounds ptr, ptr %8, i64 3
  %10 = load ptr, ptr %9, align 8
  %11 = call noundef ptr %10(ptr noundef nonnull align 8 dereferenceable(56) %7)
  store ptr %11, ptr %6, align 8
  ret void
}